target datalayout = "e-m:e-p270:32:32-p271:32:32-p272:64:64-i64:64-i128:128-f80:128-n8:16:32:64-S128"
target triple = "x86_64-pc-linux-gnu"

%struct.AVRational = type { i32, i32 }
%struct.MOVAtom = type { i32, i64 }
%struct.MOVContext = type { ptr, ptr, i32, i64, i32, i32, i32, i32, i32, i32, ptr, i32, ptr, ptr, i32, %struct.MOVFragment, ptr, i32, i32, i32, ptr, i32, i32, i32, i32, i32, i32, i32, i64, i32, i32, ptr, i32, i32, i32, i32, i32, %struct.MOVFragmentIndex, i32, i32, [20 x i8], [20 x i8], ptr, i32, ptr, i32, ptr, i32, ptr, i32, ptr, ptr, i32, i32, [3 x [3 x i32]], i32, i32, i32, i32, i32, ptr, i32, ptr, i32, i32, i64, i32 }
%struct.MOVFragment = type { i32, i32, i64, i64, i64, i32, i32, i32, i32 }
%struct.MOVFragmentIndex = type { i32, i32, i32, i32, ptr }
%struct.AVFormatContext = type { ptr, ptr, ptr, ptr, ptr, i32, i32, ptr, i32, ptr, i32, ptr, ptr, i64, i64, i64, i32, i32, i32, i64, i64, ptr, i32, i32, ptr, i32, i32, i32, i32, ptr, i64, i32, i32, %struct.AVIOInterruptCB, i32, i32, i32, i32, i64, i32, i32, i32, i32, i32, i32, i32, i32, i32, i32, i32, i32, i64, i32, i32, i32, i32, i32, ptr, ptr, ptr, ptr, i32, ptr, ptr, ptr, ptr, i32, ptr, ptr, i64, ptr, ptr, ptr, i64 }
%struct.AVIOInterruptCB = type { ptr, ptr }
%struct.AVStream = type { ptr, i32, i32, ptr, ptr, %struct.AVRational, i64, i64, i64, i32, i32, %struct.AVRational, ptr, %struct.AVRational, %struct.AVPacket, i32, %struct.AVRational, i32 }
%struct.AVPacket = type { ptr, i64, i64, ptr, i32, i32, i32, ptr, i32, i64, i64, ptr, ptr, %struct.AVRational }
%struct.MOVStreamContext = type { ptr, i32, i32, i32, i32, i32, i32, ptr, i32, i32, ptr, i32, i32, ptr, i32, ptr, i32, i32, ptr, i32, ptr, i32, i32, i32, ptr, ptr, i32, i32, i32, i32, i32, i32, ptr, i32, i32, ptr, i32, i64, i64, i32, i64, ptr, ptr, i32, i32, i32, i32, i16, i32, ptr, i32, i32, i32, i32, i32, i32, i32, i32, i32, [256 x i32], i32, i64, i32, i8, i64, i32, i32, ptr, i32, ptr, ptr, i32, ptr, i32, ptr, i32, i32, i32, i64, ptr, ptr, i32, i32, i32, ptr, ptr, i64, ptr, i64, ptr, i64, ptr, i64, ptr, i64, i32, i32, %struct.anon, ptr, i32 }
%struct.anon = type { ptr, ptr, i32, ptr, ptr }
%struct.AVStereo3D = type { i32, i32, i32, i32, i32, %struct.AVRational, %struct.AVRational }

@.str.280 = private unnamed_addr constant [30 x i8] c"Empty stereoscopic video box\0A\00", align 1
@.str.281 = private unnamed_addr constant [28 x i8] c"Unknown st3d mode value %d\0A\00", align 1

; Function Attrs: nounwind uwtable
define internal i32 @mov_read_st3d(ptr noundef %0, ptr noundef %1, i32 %2, i64 %3) #0 {
  %5 = alloca i32, align 4
  %6 = alloca %struct.MOVAtom, align 8
  %7 = alloca ptr, align 8
  %8 = alloca ptr, align 8
  %9 = alloca ptr, align 8
  %10 = alloca ptr, align 8
  %11 = alloca i32, align 4
  %12 = alloca i32, align 4
  %13 = alloca i32, align 4
  %14 = getelementptr inbounds nuw { i32, i64 }, ptr %6, i32 0, i32 0
  store i32 %2, ptr %14, align 8
  %15 = getelementptr inbounds nuw { i32, i64 }, ptr %6, i32 0, i32 1
  store i64 %3, ptr %15, align 8
  store ptr %0, ptr %7, align 8, !tbaa !4
  store ptr %1, ptr %8, align 8, !tbaa !9
  call void @llvm.lifetime.start.p0(i64 8, ptr %9) #14
  call void @llvm.lifetime.start.p0(i64 8, ptr %10) #14
  call void @llvm.lifetime.start.p0(i64 4, ptr %11) #14
  call void @llvm.lifetime.start.p0(i64 4, ptr %12) #14
  %16 = load ptr, ptr %7, align 8, !tbaa !4
  %17 = getelementptr inbounds nuw %struct.MOVContext, ptr %16, i32 0, i32 1
  %18 = load ptr, ptr %17, align 8, !tbaa !13
  %19 = getelementptr inbounds nuw %struct.AVFormatContext, ptr %18, i32 0, i32 6
  %20 = load i32, ptr %19, align 4, !tbaa !30
  %21 = icmp ult i32 %20, 1
  br i1 %21, label %22, label %23

22:                                               ; preds = %4
  store i32 0, ptr %5, align 4
  store i32 1, ptr %13, align 4
  br label %85

23:                                               ; preds = %4
  %24 = load ptr, ptr %7, align 8, !tbaa !4
  %25 = getelementptr inbounds nuw %struct.MOVContext, ptr %24, i32 0, i32 1
  %26 = load ptr, ptr %25, align 8, !tbaa !13
  %27 = getelementptr inbounds nuw %struct.AVFormatContext, ptr %26, i32 0, i32 7
  %28 = load ptr, ptr %27, align 8, !tbaa !41
  %29 = load ptr, ptr %7, align 8, !tbaa !4
  %30 = getelementptr inbounds nuw %struct.MOVContext, ptr %29, i32 0, i32 1
  %31 = load ptr, ptr %30, align 8, !tbaa !13
  %32 = getelementptr inbounds nuw %struct.AVFormatContext, ptr %31, i32 0, i32 6
  %33 = load i32, ptr %32, align 4, !tbaa !30
  %34 = sub i32 %33, 1
  %35 = zext i32 %34 to i64
  %36 = getelementptr inbounds nuw ptr, ptr %28, i64 %35
  %37 = load ptr, ptr %36, align 8, !tbaa !42
  store ptr %37, ptr %9, align 8, !tbaa !42
  %38 = load ptr, ptr %9, align 8, !tbaa !42
  %39 = getelementptr inbounds nuw %struct.AVStream, ptr %38, i32 0, i32 4
  %40 = load ptr, ptr %39, align 8, !tbaa !44
  store ptr %40, ptr %10, align 8, !tbaa !51
  %41 = getelementptr inbounds nuw %struct.MOVAtom, ptr %6, i32 0, i32 1
  %42 = load i64, ptr %41, align 8, !tbaa !58
  %43 = icmp slt i64 %42, 5
  br i1 %43, label %44, label %48

44:                                               ; preds = %23
  %45 = load ptr, ptr %7, align 8, !tbaa !4
  %46 = getelementptr inbounds nuw %struct.MOVContext, ptr %45, i32 0, i32 1
  %47 = load ptr, ptr %46, align 8, !tbaa !13
  call void (ptr, i32, ptr, ...) @av_log(ptr noundef %47, i32 noundef 16, ptr noundef @.str.280)
  store i32 -1094995529, ptr %5, align 4
  store i32 1, ptr %13, align 4
  br label %85

48:                                               ; preds = %23
  %49 = load ptr, ptr %10, align 8, !tbaa !51
  %50 = getelementptr inbounds nuw %struct.MOVStreamContext, ptr %49, i32 0, i32 85
  %51 = load ptr, ptr %50, align 8, !tbaa !197
  %52 = icmp ne ptr %51, null
  br i1 %52, label %53, label %54

53:                                               ; preds = %48
  store i32 -1094995529, ptr %5, align 4
  store i32 1, ptr %13, align 4
  br label %85

54:                                               ; preds = %48
  %55 = load ptr, ptr %8, align 8, !tbaa !9
  %56 = call i64 @avio_skip(ptr noundef %55, i64 noundef 4)
  %57 = load ptr, ptr %8, align 8, !tbaa !9
  %58 = call i32 @avio_r8(ptr noundef %57)
  store i32 %58, ptr %12, align 4, !tbaa !11
  %59 = load i32, ptr %12, align 4, !tbaa !11
  switch i32 %59, label %63 [
    i32 0, label %60
    i32 1, label %61
    i32 2, label %62
  ]

60:                                               ; preds = %54
  store i32 0, ptr %11, align 4, !tbaa !11
  br label %68

61:                                               ; preds = %54
  store i32 2, ptr %11, align 4, !tbaa !11
  br label %68

62:                                               ; preds = %54
  store i32 1, ptr %11, align 4, !tbaa !11
  br label %68

63:                                               ; preds = %54
  %64 = load ptr, ptr %7, align 8, !tbaa !4
  %65 = getelementptr inbounds nuw %struct.MOVContext, ptr %64, i32 0, i32 1
  %66 = load ptr, ptr %65, align 8, !tbaa !13
  %67 = load i32, ptr %12, align 4, !tbaa !11
  call void (ptr, i32, ptr, ...) @av_log(ptr noundef %66, i32 noundef 24, ptr noundef @.str.281, i32 noundef %67)
  store i32 0, ptr %5, align 4
  store i32 1, ptr %13, align 4
  br label %85

68:                                               ; preds = %62, %61, %60
  %69 = load ptr, ptr %10, align 8, !tbaa !51
  %70 = getelementptr inbounds nuw %struct.MOVStreamContext, ptr %69, i32 0, i32 86
  %71 = call ptr @av_stereo3d_alloc_size(ptr noundef %70)
  %72 = load ptr, ptr %10, align 8, !tbaa !51
  %73 = getelementptr inbounds nuw %struct.MOVStreamContext, ptr %72, i32 0, i32 85
  store ptr %71, ptr %73, align 8, !tbaa !197
  %74 = load ptr, ptr %10, align 8, !tbaa !51
  %75 = getelementptr inbounds nuw %struct.MOVStreamContext, ptr %74, i32 0, i32 85
  %76 = load ptr, ptr %75, align 8, !tbaa !197
  %77 = icmp ne ptr %76, null
  br i1 %77, label %79, label %78

78:                                               ; preds = %68
  store i32 -12, ptr %5, align 4
  store i32 1, ptr %13, align 4
  br label %85

79:                                               ; preds = %68
  %80 = load i32, ptr %11, align 4, !tbaa !11
  %81 = load ptr, ptr %10, align 8, !tbaa !51
  %82 = getelementptr inbounds nuw %struct.MOVStreamContext, ptr %81, i32 0, i32 85
  %83 = load ptr, ptr %82, align 8, !tbaa !197
  %84 = getelementptr inbounds nuw %struct.AVStereo3D, ptr %83, i32 0, i32 0
  store i32 %80, ptr %84, align 4, !tbaa !526
  store i32 0, ptr %5, align 4
  store i32 1, ptr %13, align 4
  br label %85

85:                                               ; preds = %79, %78, %63, %53, %44, %22
  call void @llvm.lifetime.end.p0(i64 4, ptr %12) #14
  call void @llvm.lifetime.end.p0(i64 4, ptr %11) #14
  call void @llvm.lifetime.end.p0(i64 8, ptr %10) #14
  call void @llvm.lifetime.end.p0(i64 8, ptr %9) #14
  %86 = load i32, ptr %5, align 4
  ret i32 %86
}