; Function Attrs: nounwind uwtable
define internal range(i32 -1094995529, 1) i32 @mov_read_st3d(ptr noundef readonly captures(none) %0, ptr noundef %1, i32 %2, i64 %3) #0 {
  %5 = getelementptr inbounds nuw i8, ptr %0, i64 8
  %6 = load ptr, ptr %5, align 8, !tbaa !4
  %7 = getelementptr inbounds nuw i8, ptr %6, i64 44
  %8 = load i32, ptr %7, align 4, !tbaa !25
  %9 = icmp eq i32 %8, 0
  br i1 %9, label %34, label %10

10:                                               ; preds = %4
  %11 = getelementptr inbounds nuw i8, ptr %6, i64 48
  %12 = load ptr, ptr %11, align 8, !tbaa !37
  %13 = add i32 %8, -1
  %14 = zext i32 %13 to i64
  %15 = getelementptr inbounds nuw ptr, ptr %12, i64 %14
  %16 = load ptr, ptr %15, align 8, !tbaa !38
  %17 = getelementptr inbounds nuw i8, ptr %16, i64 24
  %18 = load ptr, ptr %17, align 8, !tbaa !40
  %19 = icmp slt i64 %3, 5
  br i1 %19, label %20, label %21

20:                                               ; preds = %10
  tail call void (ptr, i32, ptr, ...) @av_log(ptr noundef nonnull %6, i32 noundef 16, ptr noundef nonnull @.str.280) #16
  br label %34

21:                                               ; preds = %10
  %22 = getelementptr inbounds nuw i8, ptr %18, i64 1512
  %23 = load ptr, ptr %22, align 8, !tbaa !278
  %.not = icmp eq ptr %23, null
  br i1 %.not, label %24, label %34

24:                                               ; preds = %21
  %25 = tail call i64 @avio_skip(ptr noundef %1, i64 noundef 4) #16
  %26 = tail call i32 @avio_r8(ptr noundef %1) #16
  %27 = icmp ult i32 %26, 3
  br i1 %27, label %switch.lookup, label %28

28:                                               ; preds = %24
  %29 = load ptr, ptr %5, align 8, !tbaa !4
  tail call void (ptr, i32, ptr, ...) @av_log(ptr noundef %29, i32 noundef 24, ptr noundef nonnull @.str.281, i32 noundef %26) #16
  br label %34

switch.lookup:                                    ; preds = %24
  %30 = zext nneg i32 %26 to i64
  %switch.gep = getelementptr inbounds nuw [3 x i32], ptr @switch.table.mov_read_st3d, i64 0, i64 %30
  %switch.load = load i32, ptr %switch.gep, align 4
  %31 = getelementptr inbounds nuw i8, ptr %18, i64 1520
  %32 = tail call ptr @av_stereo3d_alloc_size(ptr noundef nonnull %31) #16
  store ptr %32, ptr %22, align 8, !tbaa !278
  %.not19 = icmp eq ptr %32, null
  br i1 %.not19, label %34, label %33

33:                                               ; preds = %switch.lookup
  store i32 %switch.load, ptr %32, align 4, !tbaa !592
  br label %34

34:                                               ; preds = %switch.lookup, %21, %4, %33, %28, %20
  %.0 = phi i32 [ -1094995529, %20 ], [ 0, %28 ], [ 0, %33 ], [ 0, %4 ], [ -1094995529, %21 ], [ -12, %switch.lookup ]
  ret i32 %.0
}